; Function Attrs: mustprogress nounwind uwtable
define internal void @"_ZN4llvm12function_refIFvRN5clang16CompilerInstanceEEE11callback_fnIZNS2_22createModuleFromSourceENS1_14SourceLocationENS_9StringRefES8_E3$_1EEvlS3_"(i64 noundef %0, ptr noundef nonnull align 8 dereferenceable(352) %1) #0 align 2 {
  %3 = inttoptr i64 %0 to ptr
  %.val = load ptr, ptr %3, align 8
  %4 = getelementptr inbounds nuw i8, ptr %.val, i64 232
  %5 = getelementptr inbounds nuw i8, ptr %.val, i64 248
  %6 = load ptr, ptr %5, align 8
  tail call void @_ZNSt8_Rb_treeINSt7__cxx1112basic_stringIcSt11char_traitsIcESaIcEEESt4pairIKS5_S5_ESt10_Select1stIS8_ESt4lessIvESaIS8_EE8_M_eraseEPSt13_Rb_tree_nodeIS8_E(ptr noundef nonnull align 8 dereferenceable(48) %4, ptr noundef %6)
  %7 = getelementptr inbounds nuw i8, ptr %.val, i64 240
  store ptr null, ptr %5, align 8
  %8 = getelementptr inbounds nuw i8, ptr %.val, i64 256
  store ptr %7, ptr %8, align 8
  %9 = getelementptr inbounds nuw i8, ptr %.val, i64 264
  store ptr %7, ptr %9, align 8
  %10 = getelementptr inbounds nuw i8, ptr %.val, i64 272
  store i64 0, ptr %10, align 8
  %11 = getelementptr inbounds nuw i8, ptr %1, i64 248
  %12 = load ptr, ptr %11, align 8
  %.not.i.i.i.i = icmp eq ptr %12, null
  br i1 %.not.i.i.i.i, label %"_ZZN5clang16CompilerInstance22createModuleFromSourceENS_14SourceLocationEN4llvm9StringRefES3_ENK3$_1clERS0_.exit", label %13

13:                                               ; preds = %2
  %14 = getelementptr inbounds nuw i8, ptr %1, i64 240
  %15 = load i32, ptr %14, align 8
  store i32 %15, ptr %7, align 8
  %16 = load ptr, ptr %11, align 8
  store ptr %16, ptr %5, align 8
  %17 = getelementptr inbounds nuw i8, ptr %1, i64 256
  %18 = load ptr, ptr %17, align 8
  store ptr %18, ptr %8, align 8
  %19 = getelementptr inbounds nuw i8, ptr %1, i64 264
  %20 = load ptr, ptr %19, align 8
  store ptr %20, ptr %9, align 8
  %21 = getelementptr inbounds nuw i8, ptr %16, i64 8
  store ptr %7, ptr %21, align 8
  %22 = getelementptr inbounds nuw i8, ptr %1, i64 272
  %23 = load i64, ptr %22, align 8
  store i64 %23, ptr %10, align 8
  store ptr null, ptr %11, align 8
  store ptr %14, ptr %17, align 8
  store ptr %14, ptr %19, align 8
  store i64 0, ptr %22, align 8
  br label %"_ZZN5clang16CompilerInstance22createModuleFromSourceENS_14SourceLocationEN4llvm9StringRefES3_ENK3$_1clERS0_.exit"

"_ZZN5clang16CompilerInstance22createModuleFromSourceENS_14SourceLocationEN4llvm9StringRefES3_ENK3$_1clERS0_.exit": ; preds = %2, %13
  ret void
}